target datalayout = "e-m:e-p270:32:32-p271:32:32-p272:64:64-i64:64-i128:128-f80:128-n8:16:32:64-S128"
target triple = "x86_64-unknown-linux-gnu"

%"class.icu_75::Formattable" = type { %"class.icu_75::UObject", %union.anon, ptr, ptr, i32, %"class.icu_75::UnicodeString" }
%"class.icu_75::UObject" = type { ptr }
%union.anon = type { %struct.anon }
%struct.anon = type { ptr, i32 }
%"class.icu_75::UnicodeString" = type { %"class.icu_75::Replaceable", %"union.icu_75::UnicodeString::StackBufferOrFields" }
%"class.icu_75::Replaceable" = type { %"class.icu_75::UObject" }
%"union.icu_75::UnicodeString::StackBufferOrFields" = type { %struct.anon.1, [32 x i8] }
%struct.anon.1 = type { i16, i32, i32, ptr }

; Function Attrs: mustprogress nounwind uwtable
define internal noundef signext i8 @_ZL9U_SUCCESS10UErrorCode(i32 noundef %code) #0 {
entry:
  %code.addr = alloca i32, align 4
  store i32 %code, ptr %code.addr, align 4
  %0 = load i32, ptr %code.addr, align 4
  %cmp = icmp sle i32 %0, 0
  %conv = zext i1 %cmp to i8
  ret i8 %conv
}

; Function Attrs: mustprogress uwtable
define linkonce_odr noundef double @_ZNK6icu_7511Formattable7getDateER10UErrorCode(ptr noundef nonnull align 8 dereferenceable(112) %this, ptr noundef nonnull align 4 dereferenceable(4) %status) #1 comdat align 2 {
entry:
  %retval = alloca double, align 8
  %this.addr = alloca ptr, align 8
  %status.addr = alloca ptr, align 8
  store ptr %this, ptr %this.addr, align 8
  store ptr %status, ptr %status.addr, align 8
  %this1 = load ptr, ptr %this.addr, align 8
  %fType = getelementptr inbounds %"class.icu_75::Formattable", ptr %this1, i32 0, i32 4
  %0 = load i32, ptr %fType, align 8
  %cmp = icmp ne i32 %0, 0
  br i1 %cmp, label %if.then, label %if.end3

if.then:                                          ; preds = %entry
  %1 = load ptr, ptr %status.addr, align 8
  %2 = load i32, ptr %1, align 4
  %call = call noundef signext i8 @_ZL9U_SUCCESS10UErrorCode(i32 noundef %2)
  %tobool = icmp ne i8 %call, 0
  br i1 %tobool, label %if.then2, label %if.end

if.then2:                                         ; preds = %if.then
  %3 = load ptr, ptr %status.addr, align 8
  store i32 3, ptr %3, align 4
  br label %if.end

if.end:                                           ; preds = %if.then2, %if.then
  store double 0.000000e+00, ptr %retval, align 8
  br label %return

if.end3:                                          ; preds = %entry
  %fValue = getelementptr inbounds %"class.icu_75::Formattable", ptr %this1, i32 0, i32 1
  %4 = load double, ptr %fValue, align 8
  store double %4, ptr %retval, align 8
  br label %return

return:                                           ; preds = %if.end3, %if.end
  %5 = load double, ptr %retval, align 8
  ret double %5
}

; Function Attrs: mustprogress nounwind uwtable
define linkonce_odr noundef ptr @_ZN6icu_7511Formattable16fromUFormattableEPKPv(ptr noundef %fmt) #0 comdat align 2 {
entry:
  %fmt.addr = alloca ptr, align 8
  store ptr %fmt, ptr %fmt.addr, align 8
  %0 = load ptr, ptr %fmt.addr, align 8
  ret ptr %0
}

; Function Attrs: mustprogress uwtable
define double @ufmt_getDate_75(ptr noundef %fmt, ptr noundef %status) #1 {
entry:
  %fmt.addr = alloca ptr, align 8
  %status.addr = alloca ptr, align 8
  %obj = alloca ptr, align 8
  store ptr %fmt, ptr %fmt.addr, align 8
  store ptr %status, ptr %status.addr, align 8
  %0 = load ptr, ptr %fmt.addr, align 8
  %call = call noundef ptr @_ZN6icu_7511Formattable16fromUFormattableEPKPv(ptr noundef %0)
  store ptr %call, ptr %obj, align 8
  %1 = load ptr, ptr %obj, align 8
  %2 = load ptr, ptr %status.addr, align 8
  %call1 = call noundef double @_ZNK6icu_7511Formattable7getDateER10UErrorCode(ptr noundef nonnull align 8 dereferenceable(112) %1, ptr noundef nonnull align 4 dereferenceable(4) %2)
  ret double %call1
}