; Function Attrs: mustprogress nofree norecurse nosync nounwind willreturn memory(argmem: readwrite) uwtable
define double @ufmt_getDate_75(ptr nocapture noundef readonly %fmt, ptr nocapture noundef %status) local_unnamed_addr #12 {
entry:
  %fType.i = getelementptr inbounds i8, ptr %fmt, i64 40
  %0 = load i32, ptr %fType.i, align 8
  %cmp.not.i = icmp eq i32 %0, 0
  br i1 %cmp.not.i, label %if.end3.i, label %if.then.i

if.then.i:                                        ; preds = %entry
  %1 = load i32, ptr %status, align 4
  %cmp.i.i = icmp sgt i32 %1, 0
  br i1 %cmp.i.i, label %_ZNK6icu_7511Formattable7getDateER10UErrorCode.exit, label %if.then2.i

if.then2.i:                                       ; preds = %if.then.i
  store i32 3, ptr %status, align 4
  br label %_ZNK6icu_7511Formattable7getDateER10UErrorCode.exit

if.end3.i:                                        ; preds = %entry
  %fValue.i = getelementptr inbounds i8, ptr %fmt, i64 8
  %2 = load double, ptr %fValue.i, align 8
  br label %_ZNK6icu_7511Formattable7getDateER10UErrorCode.exit

_ZNK6icu_7511Formattable7getDateER10UErrorCode.exit: ; preds = %if.then.i, %if.then2.i, %if.end3.i
  %retval.0.i = phi double [ %2, %if.end3.i ], [ 0.000000e+00, %if.then2.i ], [ 0.000000e+00, %if.then.i ]
  ret double %retval.0.i
}